Certificate:
    Data:
        Version: 3 (0x2)
        Serial Number: 2 (0x2)
        Signature Algorithm: sha256WithRSAEncryption
        Issuer: CN=kubernetes@1465848178
        Validity
            Not Before: Jun 13 20:02:58 2016 GMT
            Not After : Jun 11 20:02:58 2026 GMT
        Subject: CN=kubelet
        Subject Public Key Info:
            Public Key Algorithm: rsaEncryption
            RSA Public Key: (2048 bit)
                Modulus (2048 bit):
                    00:e0:58:45:b1:17:de:b0:33:08:88:cc:f1:a2:fe:
                    f4:72:e8:16:9c:d4:eb:08:56:71:52:0e:79:5d:9c:
                    a4:4f:fa:1c:6b:55:7d:45:f1:dc:57:76:b5:95:f0:
                    51:a3:5c:6b:6c:0d:ea:09:6e:cb:db:b9:e6:02:89:
                    21:84:8a:ab:e0:c7:b9:32:4a:48:55:38:2b:f9:d6:
                    06:9c:a1:82:2d:4c:05:ba:a8:4f:5a:e4:7f:b1:38:
                    05:6e:37:43:cd:08:fc:93:4b:43:80:a2:fc:8d:03:
                    e9:2b:02:d6:4a:94:52:fe:c4:9d:07:c3:35:db:87:
                    8b:b7:cd:50:97:14:99:e9:e2:a9:39:d4:5f:3f:c1:
                    48:8f:ca:97:90:45:20:01:00:45:b0:38:5a:c1:fc:
                    67:40:15:b5:6e:0e:8b:75:59:5e:78:f2:14:ef:d6:
                    bc:e0:ea:17:7d:0a:8f:70:62:f9:60:2b:cc:b7:3a:
                    c1:6c:60:d6:49:45:77:58:06:fd:c1:45:c0:7f:44:
                    01:53:60:ca:6e:4b:52:5b:5d:f5:61:20:62:65:75:
                    f9:c3:44:97:61:4d:78:be:0c:d2:3b:b6:2f:b5:4a:
                    09:30:08:25:89:a8:c4:f7:ca:3c:89:50:a8:49:61:
                    c0:da:ef:cb:ba:fa:c6:fa:84:bb:ab:e6:03:a3:e5:
                    01:f3
                Exponent: 65537 (0x10001)
        X509v3 extensions:
            X509v3 Basic Constraints: 
                CA:FALSE
            X509v3 Subject Key Identifier: 
                D4:3A:FF:DA:26:84:D1:D9:AF:18:08:3C:F6:D8:31:E7:F4:A4:1A:40
            X509v3 Authority Key Identifier: 
                keyid:26:35:DC:47:04:BD:5F:1E:1C:C9:1D:00:E8:47:93:FC:C0:66:AA:68
                DirName:/CN=kubernetes@1465848178
                serial:CF:D2:CA:F8:B3:10:19:CC

            X509v3 Extended Key Usage: 
                TLS Web Client Authentication
            X509v3 Key Usage: 
                Digital Signature
    Signature Algorithm: sha256WithRSAEncryption
        d1:22:dd:59:d3:b2:b5:69:a1:36:3b:37:ac:e5:56:c0:9e:3a:
        05:39:2a:51:17:15:71:35:83:76:65:db:97:fa:1c:a1:3d:30:
        5f:f4:9e:45:4a:b7:20:f2:87:e7:46:df:8f:a0:dc:c0:38:d1:
        26:f4:1b:56:2e:2b:7f:ca:6e:c3:93:72:27:bb:3d:be:10:b0:
        ef:50:c4:2c:a2:4f:ad:d1:15:93:a1:cc:09:e6:2a:60:d9:f3:
        9a:5e:c9:c6:05:f3:9b:3e:a5:a9:08:7e:6c:69:4b:c0:5c:c8:
        49:04:a6:17:f1:3c:a3:a8:9e:98:30:77:17:60:11:cf:2f:7e:
        c1:dd:55:35:6d:84:a8:16:99:3f:67:45:6e:1d:f2:43:5a:be:
        39:c4:1b:a2:9a:53:9a:62:ce:d3:7e:41:55:39:8c:3e:06:e6:
        10:3a:04:e3:58:4d:c4:5b:ee:35:52:93:76:f1:26:cf:8a:c0:
        dc:fb:cb:09:e0:6d:ff:57:52:7e:4f:fa:55:84:41:f5:87:be:
        13:af:33:85:80:7f:f7:82:f5:d8:d3:dc:ed:73:a2:82:38:f2:
        0d:d9:43:b0:5d:c0:92:19:ec:13:e7:40:ba:90:df:75:70:ad:
        a0:73:b6:83:6f:df:6e:49:5c:81:23:c2:ff:10:b8:4e:19:46:
        0f:bd:49:0d
-----BEGIN CERTIFICATE-----
MIIDTzCCAjegAwIBAgIBAjANBgkqhkiG9w0BAQsFADAgMR4wHAYDVQQDDBVrdWJl
cm5ldGVzQDE0NjU4NDgxNzgwHhcNMTYwNjEzMjAwMjU4WhcNMjYwNjExMjAwMjU4
WjASMRAwDgYDVQQDDAdrdWJlbGV0MIIBIjANBgkqhkiG9w0BAQEFAAOCAQ8AMIIB
CgKCAQEA4FhFsRfesDMIiMzxov70cugWnNTrCFZxUg55XZykT/oca1V9RfHcV3a1
lfBRo1xrbA3qCW7L27nmAokhhIqr4Me5MkpIVTgr+dYGnKGCLUwFuqhPWuR/sTgF
bjdDzQj8k0tDgKL8jQPpKwLWSpRS/sSdB8M124eLt81QlxSZ6eKpOdRfP8FIj8qX
kEUgAQBFsDhawfxnQBW1bg6LdVleePIU79a84OoXfQqPcGL5YCvMtzrBbGDWSUV3
WAb9wUXAf0QBU2DKbktSW131YSBiZXX5w0SXYU14vgzSO7YvtUoJMAgliajE98o8
iVCoSWHA2u/LuvrG+oS7q+YDo+UB8wIDAQABo4GhMIGeMAkGA1UdEwQCMAAwHQYD
VR0OBBYEFNQ6/9omhNHZrxgIPPbYMef0pBpAMFAGA1UdIwRJMEeAFCY13EcEvV8e
HMkdAOhHk/zAZqpooSSkIjAgMR4wHAYDVQQDDBVrdWJlcm5ldGVzQDE0NjU4NDgx
NziCCQDP0sr4sxAZzDATBgNVHSUEDDAKBggrBgEFBQcDAjALBgNVHQ8EBAMCB4Aw
DQYJKoZIhvcNAQELBQADggEBANEi3VnTsrVpoTY7N6zlVsCeOgU5KlEXFXE1g3Zl
25f6HKE9MF/0nkVKtyDyh+dG34+g3MA40Sb0G1YuK3/KbsOTcie7Pb4QsO9QxCyi
T63RFZOhzAnmKmDZ85peycYF85s+pakIfmxpS8BcyEkEphfxPKOonpgwdxdgEc8v
fsHdVTVthKgWmT9nRW4d8kNavjnEG6KaU5piztN+QVU5jD4G5hA6BONYTcRb7jVS
k3bxJs+KwNz7ywngbf9XUn5P+lWEQfWHvhOvM4WAf/eC9djT3O1zooI48g3ZQ7Bd
wJIZ7BPnQLqQ33VwraBztoNv325JXIEjwv8QuE4ZRg+9SQ0=
-----END CERTIFICATE-----
