Certificate:
    Data:
        Version: 3 (0x2)
        Serial Number: 1 (0x1)
        Signature Algorithm: sha256WithRSAEncryption
        Issuer: CN=kubernetes@1465848178
        Validity
            Not Before: Jun 13 20:02:58 2016 GMT
            Not After : Jun 11 20:02:58 2026 GMT
        Subject: CN=server
        Subject Public Key Info:
            Public Key Algorithm: rsaEncryption
            RSA Public Key: (2048 bit)
                Modulus (2048 bit):
                    00:c9:5a:29:29:38:c1:98:12:ec:ee:48:8b:ea:3f:
                    be:cd:6f:63:a5:79:d9:f3:c8:60:fe:b0:4f:0d:66:
                    96:04:ea:18:05:b0:92:c1:18:7f:1f:23:3c:ab:70:
                    f8:ac:c2:0a:9e:c8:05:d3:82:85:8d:bc:39:fa:7a:
                    4d:4e:17:d6:75:6b:28:27:be:fc:8e:21:c8:a9:20:
                    74:84:5c:7f:62:c3:20:a2:38:c2:c5:7f:47:e1:44:
                    8d:fd:1f:01:94:1b:01:1d:f4:68:f8:f5:6a:b4:5a:
                    b3:98:1e:9f:55:47:61:7b:cf:e8:04:bb:3e:1d:dc:
                    c1:27:4d:4f:aa:d2:71:e8:18:48:87:ec:c1:fd:d7:
                    73:27:80:da:f1:69:da:82:79:c8:c4:20:1e:23:ad:
                    d8:ea:0c:dc:6d:63:b2:1d:0a:c7:65:91:63:8e:83:
                    46:82:3d:5b:c1:59:26:3c:cd:f5:69:19:d3:c5:f2:
                    36:3e:1a:22:8c:17:87:51:51:47:4a:0d:c4:4e:6b:
                    d1:d7:3e:aa:97:5a:b4:8d:6e:9f:02:42:f8:ac:39:
                    a5:40:4b:5f:81:dd:b2:9f:76:bc:f4:93:b1:8a:55:
                    ed:ef:ec:80:e5:fa:59:37:17:c4:b5:00:12:90:9f:
                    31:1a:4a:1f:9f:13:34:2f:3a:96:23:f2:48:fb:98:
                    a8:a9
                Exponent: 65537 (0x10001)
        X509v3 extensions:
            X509v3 Basic Constraints: 
                CA:FALSE
            X509v3 Subject Key Identifier: 
                B3:31:8F:AB:F7:A7:F2:04:EB:98:8A:0A:A5:0B:40:C1:A0:02:40:9C
            X509v3 Authority Key Identifier: 
                keyid:26:35:DC:47:04:BD:5F:1E:1C:C9:1D:00:E8:47:93:FC:C0:66:AA:68
                DirName:/CN=kubernetes@1465848178
                serial:CF:D2:CA:F8:B3:10:19:CC

            X509v3 Extended Key Usage: 
                TLS Web Server Authentication
            X509v3 Key Usage: 
                Digital Signature, Key Encipherment
            X509v3 Subject Alternative Name: 
                IP Address:10.254.0.1, IP Address:127.0.0.1, DNS:localhost, DNS:kubernetes, DNS:kubernetes.default, DNS:kubernetes.default.svc, DNS:kubernetes.default.svc.cluster.local, DNS:kubernetes.service.consul
    Signature Algorithm: sha256WithRSAEncryption
        b6:58:9b:35:b9:78:4f:3e:0c:b5:e9:1e:05:74:26:a2:91:08:
        8d:5a:61:b4:71:d5:cf:94:77:84:be:37:97:ac:53:71:90:af:
        ac:75:51:df:cd:df:7b:0d:6e:dc:ca:20:a7:31:84:2a:3d:6d:
        c0:e8:e8:8c:ec:44:73:61:59:2e:51:92:9c:b2:2f:26:fe:b8:
        e3:64:d3:a3:96:f3:c4:3a:25:bf:4a:15:b5:0b:16:68:68:c1:
        c9:08:1a:23:eb:18:cd:ce:50:de:59:c6:d6:97:8f:98:57:47:
        73:ac:53:96:37:06:fe:78:8a:41:ba:e3:f2:f9:b9:16:84:5d:
        4e:12:9e:b0:ab:eb:21:82:6f:9a:d1:b0:86:ec:27:63:1a:ce:
        69:fe:e7:a5:c2:6b:7f:a1:2b:43:f6:5e:6d:3b:46:95:d7:0e:
        29:f3:75:66:79:3a:28:48:7f:64:77:59:fd:26:4d:2d:13:05:
        8a:d9:f8:c4:30:6a:31:18:96:8f:60:e2:46:10:42:40:30:35:
        15:aa:0a:8f:82:d0:0d:30:27:d7:97:20:4b:72:7b:d5:79:f8:
        65:cb:a9:c6:12:d1:6b:32:9f:fc:e7:75:f4:f4:91:ef:d3:86:
        83:16:5f:d9:74:3a:81:1c:67:ca:e1:a9:ea:91:df:75:2d:c4:
        d1:0b:23:74
-----BEGIN CERTIFICATE-----
MIID7jCCAtagAwIBAgIBATANBgkqhkiG9w0BAQsFADAgMR4wHAYDVQQDDBVrdWJl
cm5ldGVzQDE0NjU4NDgxNzgwHhcNMTYwNjEzMjAwMjU4WhcNMjYwNjExMjAwMjU4
WjARMQ8wDQYDVQQDDAZzZXJ2ZXIwggEiMA0GCSqGSIb3DQEBAQUAA4IBDwAwggEK
AoIBAQDJWikpOMGYEuzuSIvqP77Nb2OlednzyGD+sE8NZpYE6hgFsJLBGH8fIzyr
cPiswgqeyAXTgoWNvDn6ek1OF9Z1aygnvvyOIcipIHSEXH9iwyCiOMLFf0fhRI39
HwGUGwEd9Gj49Wq0WrOYHp9VR2F7z+gEuz4d3MEnTU+q0nHoGEiH7MH913MngNrx
adqCecjEIB4jrdjqDNxtY7IdCsdlkWOOg0aCPVvBWSY8zfVpGdPF8jY+GiKMF4dR
UUdKDcROa9HXPqqXWrSNbp8CQvisOaVAS1+B3bKfdrz0k7GKVe3v7IDl+lk3F8S1
ABKQnzEaSh+fEzQvOpYj8kj7mKipAgMBAAGjggFAMIIBPDAJBgNVHRMEAjAAMB0G
A1UdDgQWBBSzMY+r96fyBOuYigqlC0DBoAJAnDBQBgNVHSMESTBHgBQmNdxHBL1f
HhzJHQDoR5P8wGaqaKEkpCIwIDEeMBwGA1UEAwwVa3ViZXJuZXRlc0AxNDY1ODQ4
MTc4ggkAz9LK+LMQGcwwEwYDVR0lBAwwCgYIKwYBBQUHAwEwCwYDVR0PBAQDAgWg
MIGbBgNVHREEgZMwgZCHBAr+AAGHBH8AAAGCCWxvY2FsaG9zdIIKa3ViZXJuZXRl
c4ISa3ViZXJuZXRlcy5kZWZhdWx0ghZrdWJlcm5ldGVzLmRlZmF1bHQuc3ZjgiRr
dWJlcm5ldGVzLmRlZmF1bHQuc3ZjLmNsdXN0ZXIubG9jYWyCGWt1YmVybmV0ZXMu
c2VydmljZS5jb25zdWwwDQYJKoZIhvcNAQELBQADggEBALZYmzW5eE8+DLXpHgV0
JqKRCI1aYbRx1c+Ud4S+N5esU3GQr6x1Ud/N33sNbtzKIKcxhCo9bcDo6IzsRHNh
WS5RkpyyLyb+uONk06OW88Q6Jb9KFbULFmhowckIGiPrGM3OUN5ZxtaXj5hXR3Os
U5Y3Bv54ikG64/L5uRaEXU4SnrCr6yGCb5rRsIbsJ2Mazmn+56XCa3+hK0P2Xm07
RpXXDinzdWZ5OihIf2R3Wf0mTS0TBYrZ+MQwajEYlo9g4kYQQkAwNRWqCo+C0A0w
J9eXIEtye9V5+GXLqcYS0Wsyn/zndfT0ke/ThoMWX9l0OoEcZ8rhqeqR33UtxNEL
I3Q=
-----END CERTIFICATE-----
